target datalayout = "e-m:e-p270:32:32-p271:32:32-p272:64:64-i64:64-i128:128-f80:128-n8:16:32:64-S128"
target triple = "x86_64-pc-linux-gnu"

%struct.RelFileLocator = type { i32, i32, i32 }
%struct.PendingRelDelete = type { %struct.RelFileLocator, i32, i8, i32, ptr }
%struct.RelationData = type { %struct.RelFileLocator, ptr, i32, i32, i8, i8, i8, i8, i8, i32, i32, i32, i32, ptr, ptr, i32, %struct.LockInfoData, ptr, ptr, ptr, ptr, ptr, i8, ptr, ptr, ptr, ptr, ptr, ptr, i32, ptr, i8, ptr, ptr, i32, i8, i32, ptr, i8, ptr, ptr, ptr, ptr, ptr, ptr, ptr, i32, ptr, ptr, ptr, ptr, ptr, ptr, ptr, ptr, ptr, ptr, ptr, ptr, ptr, ptr, ptr, ptr, ptr, ptr, ptr, i32, i8, ptr }
%struct.LockInfoData = type { %struct.LockRelId }
%struct.LockRelId = type { i32, i32 }

@TopMemoryContext = external global ptr, align 8
@pendingDeletes = internal global ptr null, align 8

; Function Attrs: inlinehint nounwind uwtable
define internal void @RelationCloseSmgr(ptr noundef %0) #5 {
  %2 = alloca ptr, align 8
  store ptr %0, ptr %2, align 8
  %3 = load ptr, ptr %2, align 8
  %4 = getelementptr inbounds nuw %struct.RelationData, ptr %3, i32 0, i32 1
  %5 = load ptr, ptr %4, align 8
  %6 = icmp ne ptr %5, null
  br i1 %6, label %7, label %16

7:                                                ; preds = %1
  %8 = load ptr, ptr %2, align 8
  %9 = getelementptr inbounds nuw %struct.RelationData, ptr %8, i32 0, i32 1
  %10 = load ptr, ptr %9, align 8
  call void @smgrunpin(ptr noundef %10)
  %11 = load ptr, ptr %2, align 8
  %12 = getelementptr inbounds nuw %struct.RelationData, ptr %11, i32 0, i32 1
  %13 = load ptr, ptr %12, align 8
  call void @smgrclose(ptr noundef %13)
  %14 = load ptr, ptr %2, align 8
  %15 = getelementptr inbounds nuw %struct.RelationData, ptr %14, i32 0, i32 1
  store ptr null, ptr %15, align 8
  br label %16

16:                                               ; preds = %7, %1
  ret void
}

; Function Attrs: nounwind uwtable
define dso_local void @RelationDropStorage(ptr noundef %0) #0 {
  %2 = alloca ptr, align 8
  %3 = alloca ptr, align 8
  store ptr %0, ptr %2, align 8
  call void @llvm.lifetime.start.p0(i64 8, ptr %3) #8
  %4 = load ptr, ptr @TopMemoryContext, align 8
  %5 = call ptr @MemoryContextAlloc(ptr noundef %4, i64 noundef 32)
  store ptr %5, ptr %3, align 8
  %6 = load ptr, ptr %3, align 8
  %7 = getelementptr inbounds nuw %struct.PendingRelDelete, ptr %6, i32 0, i32 0
  %8 = load ptr, ptr %2, align 8
  %9 = getelementptr inbounds nuw %struct.RelationData, ptr %8, i32 0, i32 0
  call void @llvm.memcpy.p0.p0.i64(ptr align 8 %7, ptr align 8 %9, i64 12, i1 false)
  %10 = load ptr, ptr %2, align 8
  %11 = getelementptr inbounds nuw %struct.RelationData, ptr %10, i32 0, i32 3
  %12 = load i32, ptr %11, align 4
  %13 = load ptr, ptr %3, align 8
  %14 = getelementptr inbounds nuw %struct.PendingRelDelete, ptr %13, i32 0, i32 1
  store i32 %12, ptr %14, align 4
  %15 = load ptr, ptr %3, align 8
  %16 = getelementptr inbounds nuw %struct.PendingRelDelete, ptr %15, i32 0, i32 2
  store i8 1, ptr %16, align 8
  %17 = call i32 @GetCurrentTransactionNestLevel()
  %18 = load ptr, ptr %3, align 8
  %19 = getelementptr inbounds nuw %struct.PendingRelDelete, ptr %18, i32 0, i32 3
  store i32 %17, ptr %19, align 4
  %20 = load ptr, ptr @pendingDeletes, align 8
  %21 = load ptr, ptr %3, align 8
  %22 = getelementptr inbounds nuw %struct.PendingRelDelete, ptr %21, i32 0, i32 4
  store ptr %20, ptr %22, align 8
  %23 = load ptr, ptr %3, align 8
  store ptr %23, ptr @pendingDeletes, align 8
  %24 = load ptr, ptr %2, align 8
  call void @RelationCloseSmgr(ptr noundef %24)
  call void @llvm.lifetime.end.p0(i64 8, ptr %3) #8
  ret void
}