; Function Attrs: nounwind uwtable
define dso_local void @RelationDropStorage(ptr noundef captures(none) %0) local_unnamed_addr #0 {
  %2 = load ptr, ptr @TopMemoryContext, align 8
  %3 = tail call ptr @MemoryContextAlloc(ptr noundef %2, i64 noundef 32) #8
  tail call void @llvm.memcpy.p0.p0.i64(ptr noundef nonnull align 8 dereferenceable(12) %3, ptr noundef nonnull align 8 dereferenceable(12) %0, i64 12, i1 false)
  %4 = getelementptr inbounds nuw i8, ptr %0, i64 28
  %5 = load i32, ptr %4, align 4
  %6 = getelementptr inbounds nuw i8, ptr %3, i64 12
  store i32 %5, ptr %6, align 4
  %7 = getelementptr inbounds nuw i8, ptr %3, i64 16
  store i8 1, ptr %7, align 8
  %8 = tail call i32 @GetCurrentTransactionNestLevel() #8
  %9 = getelementptr inbounds nuw i8, ptr %3, i64 20
  store i32 %8, ptr %9, align 4
  %10 = load ptr, ptr @pendingDeletes, align 8
  %11 = getelementptr inbounds nuw i8, ptr %3, i64 24
  store ptr %10, ptr %11, align 8
  store ptr %3, ptr @pendingDeletes, align 8
  %12 = getelementptr inbounds nuw i8, ptr %0, i64 16
  %13 = load ptr, ptr %12, align 8
  %.not.i = icmp eq ptr %13, null
  br i1 %.not.i, label %RelationCloseSmgr.exit, label %14

14:                                               ; preds = %1
  tail call void @smgrunpin(ptr noundef nonnull %13) #8
  %15 = load ptr, ptr %12, align 8
  tail call void @smgrclose(ptr noundef %15) #8
  store ptr null, ptr %12, align 8
  br label %RelationCloseSmgr.exit

RelationCloseSmgr.exit:                           ; preds = %1, %14
  ret void
}